target datalayout = "e-m:e-p270:32:32-p271:32:32-p272:64:64-i64:64-i128:128-f80:128-n8:16:32:64-S128"
target triple = "x86_64-unknown-linux-gnu"

%"class.llvh::SMLoc" = type { ptr }
%"class.hermes::irgen::ESTreeIRGen" = type { ptr, %"class.hermes::IRBuilder", %"class.hermes::IRInstrument", ptr, ptr, ptr, ptr, %"class.hermes::ScopedHashTable", %"class.std::shared_ptr", %"class.hermes::Identifier", %"class.hermes::Identifier", %"class.hermes::Identifier", ptr, ptr, %"class.llvh::DenseMap.9" }
%"class.hermes::IRBuilder" = type { ptr, %"class.llvh::ilist_iterator", ptr, %"class.llvh::SMLoc", ptr }
%"class.llvh::ilist_iterator" = type { ptr }
%"class.hermes::IRInstrument" = type { i8 }
%"class.hermes::ScopedHashTable" = type { %"class.llvh::DenseMap", ptr }
%"class.llvh::DenseMap" = type <{ ptr, i32, i32, i32, [4 x i8] }>
%"class.std::shared_ptr" = type { %"class.std::__shared_ptr" }
%"class.std::__shared_ptr" = type { ptr, %"class.std::__shared_count" }
%"class.std::__shared_count" = type { ptr }
%"class.hermes::Identifier" = type { ptr }
%"class.llvh::DenseMap.9" = type <{ ptr, i32, i32, i32, [4 x i8] }>
%"class.llvh::StringRef" = type { ptr, i64 }
%"class.llvh::ArrayRef" = type { ptr, i64 }
%"class.std::initializer_list" = type { ptr, i64 }
%"struct.hermes::irgen::ESTreeIRGen::IteratorRecordSlow" = type { ptr, ptr }

@.str.12 = private unnamed_addr constant [7 x i8] c"Symbol\00", align 1
@.str.13 = private unnamed_addr constant [9 x i8] c"iterator\00", align 1
@.str.14 = private unnamed_addr constant [26 x i8] c"iterator is not an object\00", align 1
@.str.15 = private unnamed_addr constant [5 x i8] c"next\00", align 1

; Function Attrs: mustprogress nounwind uwtable
define linkonce_odr hidden noundef i64 @_ZNKSt16initializer_listIPN6hermes5ValueEE4sizeEv(ptr noundef nonnull align 8 dereferenceable(16) %this) #0 comdat align 2 {
entry:
  %this.addr = alloca ptr, align 8
  store ptr %this, ptr %this.addr, align 8
  %this1 = load ptr, ptr %this.addr, align 8
  %_M_len = getelementptr inbounds %"class.std::initializer_list", ptr %this1, i32 0, i32 1
  %0 = load i64, ptr %_M_len, align 8
  ret i64 %0
}

; Function Attrs: mustprogress nounwind uwtable
define linkonce_odr hidden noundef ptr @_ZNKSt16initializer_listIPN6hermes5ValueEE3endEv(ptr noundef nonnull align 8 dereferenceable(16) %this) #0 comdat align 2 {
entry:
  %this.addr = alloca ptr, align 8
  store ptr %this, ptr %this.addr, align 8
  %this1 = load ptr, ptr %this.addr, align 8
  %call = call noundef ptr @_ZNKSt16initializer_listIPN6hermes5ValueEE5beginEv(ptr noundef nonnull align 8 dereferenceable(16) %this1) #10
  %call2 = call noundef i64 @_ZNKSt16initializer_listIPN6hermes5ValueEE4sizeEv(ptr noundef nonnull align 8 dereferenceable(16) %this1) #10
  %add.ptr = getelementptr inbounds ptr, ptr %call, i64 %call2
  ret ptr %add.ptr
}

; Function Attrs: mustprogress nounwind uwtable
define linkonce_odr hidden noundef ptr @_ZNKSt16initializer_listIPN6hermes5ValueEE5beginEv(ptr noundef nonnull align 8 dereferenceable(16) %this) #0 comdat align 2 {
entry:
  %this.addr = alloca ptr, align 8
  store ptr %this, ptr %this.addr, align 8
  %this1 = load ptr, ptr %this.addr, align 8
  %_M_array = getelementptr inbounds %"class.std::initializer_list", ptr %this1, i32 0, i32 0
  %0 = load ptr, ptr %_M_array, align 8
  ret ptr %0
}

; Function Attrs: mustprogress nounwind uwtable
define hidden noundef ptr @_ZN6hermes5irgen11ESTreeIRGen14genBuiltinCallENS_13BuiltinMethod4EnumEN4llvh8ArrayRefIPNS_5ValueEEE(ptr noundef nonnull align 8 dereferenceable(200) %this, i8 noundef zeroext %builtinIndex, ptr %args.coerce0, i64 %args.coerce1) #0 align 2 {
entry:
  %args = alloca %"class.llvh::ArrayRef", align 8
  %this.addr = alloca ptr, align 8
  %builtinIndex.addr = alloca i8, align 1
  %agg.tmp = alloca %"class.llvh::ArrayRef", align 8
  %0 = getelementptr inbounds { ptr, i64 }, ptr %args, i32 0, i32 0
  store ptr %args.coerce0, ptr %0, align 8
  %1 = getelementptr inbounds { ptr, i64 }, ptr %args, i32 0, i32 1
  store i64 %args.coerce1, ptr %1, align 8
  store ptr %this, ptr %this.addr, align 8
  store i8 %builtinIndex, ptr %builtinIndex.addr, align 1
  %this1 = load ptr, ptr %this.addr, align 8
  %Builder = getelementptr inbounds %"class.hermes::irgen::ESTreeIRGen", ptr %this1, i32 0, i32 1
  %2 = load i8, ptr %builtinIndex.addr, align 1
  call void @llvm.memcpy.p0.p0.i64(ptr align 8 %agg.tmp, ptr align 8 %args, i64 16, i1 false)
  %3 = getelementptr inbounds { ptr, i64 }, ptr %agg.tmp, i32 0, i32 0
  %4 = load ptr, ptr %3, align 8
  %5 = getelementptr inbounds { ptr, i64 }, ptr %agg.tmp, i32 0, i32 1
  %6 = load i64, ptr %5, align 8
  %call = call noundef ptr @_ZN6hermes9IRBuilder21createCallBuiltinInstENS_13BuiltinMethod4EnumEN4llvh8ArrayRefIPNS_5ValueEEE(ptr noundef nonnull align 8 dereferenceable(40) %Builder, i8 noundef zeroext %2, ptr %4, i64 %6)
  %7 = icmp eq ptr %call, null
  br i1 %7, label %cast.end, label %cast.notnull

cast.notnull:                                     ; preds = %entry
  %add.ptr = getelementptr inbounds i8, ptr %call, i64 16
  br label %cast.end

cast.end:                                         ; preds = %cast.notnull, %entry
  %cast.result = phi ptr [ %add.ptr, %cast.notnull ], [ null, %entry ]
  ret ptr %cast.result
}

; Function Attrs: mustprogress nounwind uwtable
define linkonce_odr hidden void @_ZN4llvh8ArrayRefIPN6hermes5ValueEEC2ERKSt16initializer_listIS3_E(ptr noundef nonnull align 8 dereferenceable(16) %this, ptr noundef nonnull align 8 dereferenceable(16) %Vec) unnamed_addr #0 comdat align 2 {
entry:
  %this.addr = alloca ptr, align 8
  %Vec.addr = alloca ptr, align 8
  store ptr %this, ptr %this.addr, align 8
  store ptr %Vec, ptr %Vec.addr, align 8
  %this1 = load ptr, ptr %this.addr, align 8
  %Data = getelementptr inbounds %"class.llvh::ArrayRef", ptr %this1, i32 0, i32 0
  %0 = load ptr, ptr %Vec.addr, align 8
  %call = call noundef ptr @_ZNKSt16initializer_listIPN6hermes5ValueEE5beginEv(ptr noundef nonnull align 8 dereferenceable(16) %0) #10
  %1 = load ptr, ptr %Vec.addr, align 8
  %call2 = call noundef ptr @_ZNKSt16initializer_listIPN6hermes5ValueEE3endEv(ptr noundef nonnull align 8 dereferenceable(16) %1) #10
  %cmp = icmp eq ptr %call, %call2
  br i1 %cmp, label %cond.true, label %cond.false

cond.true:                                        ; preds = %entry
  br label %cond.end

cond.false:                                       ; preds = %entry
  %2 = load ptr, ptr %Vec.addr, align 8
  %call3 = call noundef ptr @_ZNKSt16initializer_listIPN6hermes5ValueEE5beginEv(ptr noundef nonnull align 8 dereferenceable(16) %2) #10
  br label %cond.end

cond.end:                                         ; preds = %cond.false, %cond.true
  %cond = phi ptr [ null, %cond.true ], [ %call3, %cond.false ]
  store ptr %cond, ptr %Data, align 8
  %Length = getelementptr inbounds %"class.llvh::ArrayRef", ptr %this1, i32 0, i32 1
  %3 = load ptr, ptr %Vec.addr, align 8
  %call4 = call noundef i64 @_ZNKSt16initializer_listIPN6hermes5ValueEE4sizeEv(ptr noundef nonnull align 8 dereferenceable(16) %3) #10
  store i64 %call4, ptr %Length, align 8
  ret void
}

; Function Attrs: mustprogress nounwind uwtable
define hidden void @_ZN6hermes5irgen11ESTreeIRGen16emitEnsureObjectEPNS_5ValueEN4llvh9StringRefE(ptr noundef nonnull align 8 dereferenceable(200) %this, ptr noundef %value, ptr %message.coerce0, i64 %message.coerce1) #0 align 2 {
entry:
  %message = alloca %"class.llvh::StringRef", align 8
  %this.addr = alloca ptr, align 8
  %value.addr = alloca ptr, align 8
  %agg.tmp = alloca %"class.llvh::ArrayRef", align 8
  %ref.tmp = alloca %"class.std::initializer_list", align 8
  %ref.tmp2 = alloca [2 x ptr], align 8
  %agg.tmp3 = alloca %"class.llvh::StringRef", align 8
  %0 = getelementptr inbounds { ptr, i64 }, ptr %message, i32 0, i32 0
  store ptr %message.coerce0, ptr %0, align 8
  %1 = getelementptr inbounds { ptr, i64 }, ptr %message, i32 0, i32 1
  store i64 %message.coerce1, ptr %1, align 8
  store ptr %this, ptr %this.addr, align 8
  store ptr %value, ptr %value.addr, align 8
  %this1 = load ptr, ptr %this.addr, align 8
  %arrayinit.begin = getelementptr inbounds [2 x ptr], ptr %ref.tmp2, i64 0, i64 0
  %2 = load ptr, ptr %value.addr, align 8
  store ptr %2, ptr %arrayinit.begin, align 8
  %arrayinit.element = getelementptr inbounds ptr, ptr %arrayinit.begin, i64 1
  %Builder = getelementptr inbounds %"class.hermes::irgen::ESTreeIRGen", ptr %this1, i32 0, i32 1
  call void @llvm.memcpy.p0.p0.i64(ptr align 8 %agg.tmp3, ptr align 8 %message, i64 16, i1 false)
  %3 = getelementptr inbounds { ptr, i64 }, ptr %agg.tmp3, i32 0, i32 0
  %4 = load ptr, ptr %3, align 8
  %5 = getelementptr inbounds { ptr, i64 }, ptr %agg.tmp3, i32 0, i32 1
  %6 = load i64, ptr %5, align 8
  %call = call noundef ptr @_ZN6hermes9IRBuilder16getLiteralStringEN4llvh9StringRefE(ptr noundef nonnull align 8 dereferenceable(40) %Builder, ptr %4, i64 %6)
  store ptr %call, ptr %arrayinit.element, align 8
  %_M_array = getelementptr inbounds %"class.std::initializer_list", ptr %ref.tmp, i32 0, i32 0
  %arraystart = getelementptr inbounds [2 x ptr], ptr %ref.tmp2, i64 0, i64 0
  store ptr %arraystart, ptr %_M_array, align 8
  %_M_len = getelementptr inbounds %"class.std::initializer_list", ptr %ref.tmp, i32 0, i32 1
  store i64 2, ptr %_M_len, align 8
  call void @_ZN4llvh8ArrayRefIPN6hermes5ValueEEC2ERKSt16initializer_listIS3_E(ptr noundef nonnull align 8 dereferenceable(16) %agg.tmp, ptr noundef nonnull align 8 dereferenceable(16) %ref.tmp)
  %7 = getelementptr inbounds { ptr, i64 }, ptr %agg.tmp, i32 0, i32 0
  %8 = load ptr, ptr %7, align 8
  %9 = getelementptr inbounds { ptr, i64 }, ptr %agg.tmp, i32 0, i32 1
  %10 = load i64, ptr %9, align 8
  %call4 = call noundef ptr @_ZN6hermes5irgen11ESTreeIRGen14genBuiltinCallENS_13BuiltinMethod4EnumEN4llvh8ArrayRefIPNS_5ValueEEE(ptr noundef nonnull align 8 dereferenceable(200) %this1, i8 noundef zeroext 40, ptr %8, i64 %10)
  ret void
}

; Function Attrs: mustprogress nounwind uwtable
define linkonce_odr hidden void @_ZN4llvh8ArrayRefIPN6hermes5ValueEEC2Ev(ptr noundef nonnull align 8 dereferenceable(16) %this) unnamed_addr #0 comdat align 2 {
entry:
  %this.addr = alloca ptr, align 8
  store ptr %this, ptr %this.addr, align 8
  %this1 = load ptr, ptr %this.addr, align 8
  %Data = getelementptr inbounds %"class.llvh::ArrayRef", ptr %this1, i32 0, i32 0
  store ptr null, ptr %Data, align 8
  %Length = getelementptr inbounds %"class.llvh::ArrayRef", ptr %this1, i32 0, i32 1
  store i64 0, ptr %Length, align 8
  ret void
}

; Function Attrs: mustprogress nounwind uwtable
define hidden noundef ptr @_ZN6hermes5irgen11ESTreeIRGen18emitIteratorSymbolEv(ptr noundef nonnull align 8 dereferenceable(200) %this) #0 align 2 {
entry:
  %this.addr.i9 = alloca ptr, align 8
  %Str.addr.i10 = alloca ptr, align 8
  %this.addr.i = alloca ptr, align 8
  %Str.addr.i = alloca ptr, align 8
  %this.addr = alloca ptr, align 8
  %agg.tmp = alloca %"class.llvh::StringRef", align 8
  %agg.tmp3 = alloca %"class.llvh::StringRef", align 8
  store ptr %this, ptr %this.addr, align 8
  %this1 = load ptr, ptr %this.addr, align 8
  %Builder = getelementptr inbounds %"class.hermes::irgen::ESTreeIRGen", ptr %this1, i32 0, i32 1
  %Builder2 = getelementptr inbounds %"class.hermes::irgen::ESTreeIRGen", ptr %this1, i32 0, i32 1
  store ptr %agg.tmp, ptr %this.addr.i, align 8
  store ptr @.str.12, ptr %Str.addr.i, align 8
  %this1.i = load ptr, ptr %this.addr.i, align 8
  %0 = load ptr, ptr %Str.addr.i, align 8
  store ptr %0, ptr %this1.i, align 8
  %Length.i = getelementptr inbounds %"class.llvh::StringRef", ptr %this1.i, i32 0, i32 1
  %1 = load ptr, ptr %Str.addr.i, align 8
  %tobool.i = icmp ne ptr %1, null
  br i1 %tobool.i, label %cond.true.i, label %cond.false.i

cond.true.i:                                      ; preds = %entry
  %2 = load ptr, ptr %Str.addr.i, align 8
  %call.i = call i64 @strlen(ptr noundef %2) #11
  br label %_ZN4llvh9StringRefC2EPKc.exit

cond.false.i:                                     ; preds = %entry
  br label %_ZN4llvh9StringRefC2EPKc.exit

_ZN4llvh9StringRefC2EPKc.exit:                    ; preds = %cond.false.i, %cond.true.i
  %cond.i = phi i64 [ %call.i, %cond.true.i ], [ 0, %cond.false.i ]
  store i64 %cond.i, ptr %Length.i, align 8
  %3 = getelementptr inbounds { ptr, i64 }, ptr %agg.tmp, i32 0, i32 0
  %4 = load ptr, ptr %3, align 8
  %5 = getelementptr inbounds { ptr, i64 }, ptr %agg.tmp, i32 0, i32 1
  %6 = load i64, ptr %5, align 8
  %call = call noundef ptr @_ZN6hermes9IRBuilder31createTryLoadGlobalPropertyInstEN4llvh9StringRefE(ptr noundef nonnull align 8 dereferenceable(40) %Builder2, ptr %4, i64 %6)
  %7 = icmp eq ptr %call, null
  br i1 %7, label %cast.end, label %cast.notnull

cast.notnull:                                     ; preds = %_ZN4llvh9StringRefC2EPKc.exit
  %add.ptr = getelementptr inbounds i8, ptr %call, i64 16
  br label %cast.end

cast.end:                                         ; preds = %cast.notnull, %_ZN4llvh9StringRefC2EPKc.exit
  %cast.result = phi ptr [ %add.ptr, %cast.notnull ], [ null, %_ZN4llvh9StringRefC2EPKc.exit ]
  store ptr %agg.tmp3, ptr %this.addr.i9, align 8
  store ptr @.str.13, ptr %Str.addr.i10, align 8
  %this1.i11 = load ptr, ptr %this.addr.i9, align 8
  %8 = load ptr, ptr %Str.addr.i10, align 8
  store ptr %8, ptr %this1.i11, align 8
  %Length.i12 = getelementptr inbounds %"class.llvh::StringRef", ptr %this1.i11, i32 0, i32 1
  %9 = load ptr, ptr %Str.addr.i10, align 8
  %tobool.i13 = icmp ne ptr %9, null
  br i1 %tobool.i13, label %cond.true.i16, label %cond.false.i14

cond.true.i16:                                    ; preds = %cast.end
  %10 = load ptr, ptr %Str.addr.i10, align 8
  %call.i17 = call i64 @strlen(ptr noundef %10) #11
  br label %_ZN4llvh9StringRefC2EPKc.exit18

cond.false.i14:                                   ; preds = %cast.end
  br label %_ZN4llvh9StringRefC2EPKc.exit18

_ZN4llvh9StringRefC2EPKc.exit18:                  ; preds = %cond.false.i14, %cond.true.i16
  %cond.i15 = phi i64 [ %call.i17, %cond.true.i16 ], [ 0, %cond.false.i14 ]
  store i64 %cond.i15, ptr %Length.i12, align 8
  %11 = getelementptr inbounds { ptr, i64 }, ptr %agg.tmp3, i32 0, i32 0
  %12 = load ptr, ptr %11, align 8
  %13 = getelementptr inbounds { ptr, i64 }, ptr %agg.tmp3, i32 0, i32 1
  %14 = load i64, ptr %13, align 8
  %call4 = call noundef ptr @_ZN6hermes9IRBuilder22createLoadPropertyInstEPNS_5ValueEN4llvh9StringRefE(ptr noundef nonnull align 8 dereferenceable(40) %Builder, ptr noundef %cast.result, ptr %12, i64 %14)
  %15 = icmp eq ptr %call4, null
  br i1 %15, label %cast.end7, label %cast.notnull5

cast.notnull5:                                    ; preds = %_ZN4llvh9StringRefC2EPKc.exit18
  %add.ptr6 = getelementptr inbounds i8, ptr %call4, i64 16
  br label %cast.end7

cast.end7:                                        ; preds = %cast.notnull5, %_ZN4llvh9StringRefC2EPKc.exit18
  %cast.result8 = phi ptr [ %add.ptr6, %cast.notnull5 ], [ null, %_ZN4llvh9StringRefC2EPKc.exit18 ]
  ret ptr %cast.result8
}

; Function Attrs: mustprogress nounwind uwtable
define hidden { ptr, ptr } @_ZN6hermes5irgen11ESTreeIRGen19emitGetIteratorSlowEPNS_5ValueE(ptr noundef nonnull align 8 dereferenceable(200) %this, ptr noundef %obj) #0 align 2 {
entry:
  %this.addr.i27 = alloca ptr, align 8
  %Str.addr.i28 = alloca ptr, align 8
  %this.addr.i = alloca ptr, align 8
  %Str.addr.i = alloca ptr, align 8
  %retval = alloca %"struct.hermes::irgen::ESTreeIRGen::IteratorRecordSlow", align 8
  %this.addr = alloca ptr, align 8
  %obj.addr = alloca ptr, align 8
  %method = alloca ptr, align 8
  %iterator = alloca ptr, align 8
  %agg.tmp = alloca %"class.llvh::ArrayRef", align 8
  %agg.tmp9 = alloca %"class.llvh::StringRef", align 8
  %nextMethod = alloca ptr, align 8
  %agg.tmp15 = alloca %"class.llvh::StringRef", align 8
  store ptr %this, ptr %this.addr, align 8
  store ptr %obj, ptr %obj.addr, align 8
  %this1 = load ptr, ptr %this.addr, align 8
  %Builder = getelementptr inbounds %"class.hermes::irgen::ESTreeIRGen", ptr %this1, i32 0, i32 1
  %0 = load ptr, ptr %obj.addr, align 8
  %call = call noundef ptr @_ZN6hermes5irgen11ESTreeIRGen18emitIteratorSymbolEv(ptr noundef nonnull align 8 dereferenceable(200) %this1)
  %call2 = call noundef ptr @_ZN6hermes9IRBuilder22createLoadPropertyInstEPNS_5ValueES2_(ptr noundef nonnull align 8 dereferenceable(40) %Builder, ptr noundef %0, ptr noundef %call)
  store ptr %call2, ptr %method, align 8
  %Builder3 = getelementptr inbounds %"class.hermes::irgen::ESTreeIRGen", ptr %this1, i32 0, i32 1
  %1 = load ptr, ptr %method, align 8
  %2 = icmp eq ptr %1, null
  br i1 %2, label %cast.end, label %cast.notnull

cast.notnull:                                     ; preds = %entry
  %add.ptr = getelementptr inbounds i8, ptr %1, i64 16
  br label %cast.end

cast.end:                                         ; preds = %cast.notnull, %entry
  %cast.result = phi ptr [ %add.ptr, %cast.notnull ], [ null, %entry ]
  %3 = load ptr, ptr %obj.addr, align 8
  call void @llvm.memset.p0.i64(ptr align 8 %agg.tmp, i8 0, i64 16, i1 false)
  call void @_ZN4llvh8ArrayRefIPN6hermes5ValueEEC2Ev(ptr noundef nonnull align 8 dereferenceable(16) %agg.tmp) #10
  %4 = getelementptr inbounds { ptr, i64 }, ptr %agg.tmp, i32 0, i32 0
  %5 = load ptr, ptr %4, align 8
  %6 = getelementptr inbounds { ptr, i64 }, ptr %agg.tmp, i32 0, i32 1
  %7 = load i64, ptr %6, align 8
  %call4 = call noundef ptr @_ZN6hermes9IRBuilder14createCallInstEPNS_13LiteralStringEPNS_5ValueES4_N4llvh8ArrayRefIS4_EE(ptr noundef nonnull align 8 dereferenceable(40) %Builder3, ptr noundef null, ptr noundef %cast.result, ptr noundef %3, ptr %5, i64 %7)
  store ptr %call4, ptr %iterator, align 8
  %8 = load ptr, ptr %iterator, align 8
  %9 = icmp eq ptr %8, null
  br i1 %9, label %cast.end7, label %cast.notnull5

cast.notnull5:                                    ; preds = %cast.end
  %add.ptr6 = getelementptr inbounds i8, ptr %8, i64 16
  br label %cast.end7

cast.end7:                                        ; preds = %cast.notnull5, %cast.end
  %cast.result8 = phi ptr [ %add.ptr6, %cast.notnull5 ], [ null, %cast.end ]
  store ptr %agg.tmp9, ptr %this.addr.i, align 8
  store ptr @.str.14, ptr %Str.addr.i, align 8
  %this1.i = load ptr, ptr %this.addr.i, align 8
  %10 = load ptr, ptr %Str.addr.i, align 8
  store ptr %10, ptr %this1.i, align 8
  %Length.i = getelementptr inbounds %"class.llvh::StringRef", ptr %this1.i, i32 0, i32 1
  %11 = load ptr, ptr %Str.addr.i, align 8
  %tobool.i = icmp ne ptr %11, null
  br i1 %tobool.i, label %cond.true.i, label %cond.false.i

cond.true.i:                                      ; preds = %cast.end7
  %12 = load ptr, ptr %Str.addr.i, align 8
  %call.i = call i64 @strlen(ptr noundef %12) #11
  br label %_ZN4llvh9StringRefC2EPKc.exit

cond.false.i:                                     ; preds = %cast.end7
  br label %_ZN4llvh9StringRefC2EPKc.exit

_ZN4llvh9StringRefC2EPKc.exit:                    ; preds = %cond.false.i, %cond.true.i
  %cond.i = phi i64 [ %call.i, %cond.true.i ], [ 0, %cond.false.i ]
  store i64 %cond.i, ptr %Length.i, align 8
  %13 = getelementptr inbounds { ptr, i64 }, ptr %agg.tmp9, i32 0, i32 0
  %14 = load ptr, ptr %13, align 8
  %15 = getelementptr inbounds { ptr, i64 }, ptr %agg.tmp9, i32 0, i32 1
  %16 = load i64, ptr %15, align 8
  call void @_ZN6hermes5irgen11ESTreeIRGen16emitEnsureObjectEPNS_5ValueEN4llvh9StringRefE(ptr noundef nonnull align 8 dereferenceable(200) %this1, ptr noundef %cast.result8, ptr %14, i64 %16)
  %Builder10 = getelementptr inbounds %"class.hermes::irgen::ESTreeIRGen", ptr %this1, i32 0, i32 1
  %17 = load ptr, ptr %iterator, align 8
  %18 = icmp eq ptr %17, null
  br i1 %18, label %cast.end13, label %cast.notnull11

cast.notnull11:                                   ; preds = %_ZN4llvh9StringRefC2EPKc.exit
  %add.ptr12 = getelementptr inbounds i8, ptr %17, i64 16
  br label %cast.end13

cast.end13:                                       ; preds = %cast.notnull11, %_ZN4llvh9StringRefC2EPKc.exit
  %cast.result14 = phi ptr [ %add.ptr12, %cast.notnull11 ], [ null, %_ZN4llvh9StringRefC2EPKc.exit ]
  store ptr %agg.tmp15, ptr %this.addr.i27, align 8
  store ptr @.str.15, ptr %Str.addr.i28, align 8
  %this1.i29 = load ptr, ptr %this.addr.i27, align 8
  %19 = load ptr, ptr %Str.addr.i28, align 8
  store ptr %19, ptr %this1.i29, align 8
  %Length.i30 = getelementptr inbounds %"class.llvh::StringRef", ptr %this1.i29, i32 0, i32 1
  %20 = load ptr, ptr %Str.addr.i28, align 8
  %tobool.i31 = icmp ne ptr %20, null
  br i1 %tobool.i31, label %cond.true.i34, label %cond.false.i32

cond.true.i34:                                    ; preds = %cast.end13
  %21 = load ptr, ptr %Str.addr.i28, align 8
  %call.i35 = call i64 @strlen(ptr noundef %21) #11
  br label %_ZN4llvh9StringRefC2EPKc.exit36

cond.false.i32:                                   ; preds = %cast.end13
  br label %_ZN4llvh9StringRefC2EPKc.exit36

_ZN4llvh9StringRefC2EPKc.exit36:                  ; preds = %cond.false.i32, %cond.true.i34
  %cond.i33 = phi i64 [ %call.i35, %cond.true.i34 ], [ 0, %cond.false.i32 ]
  store i64 %cond.i33, ptr %Length.i30, align 8
  %22 = getelementptr inbounds { ptr, i64 }, ptr %agg.tmp15, i32 0, i32 0
  %23 = load ptr, ptr %22, align 8
  %24 = getelementptr inbounds { ptr, i64 }, ptr %agg.tmp15, i32 0, i32 1
  %25 = load i64, ptr %24, align 8
  %call16 = call noundef ptr @_ZN6hermes9IRBuilder22createLoadPropertyInstEPNS_5ValueEN4llvh9StringRefE(ptr noundef nonnull align 8 dereferenceable(40) %Builder10, ptr noundef %cast.result14, ptr %23, i64 %25)
  store ptr %call16, ptr %nextMethod, align 8
  %iterator17 = getelementptr inbounds %"struct.hermes::irgen::ESTreeIRGen::IteratorRecordSlow", ptr %retval, i32 0, i32 0
  %26 = load ptr, ptr %iterator, align 8
  %27 = icmp eq ptr %26, null
  br i1 %27, label %cast.end20, label %cast.notnull18

cast.notnull18:                                   ; preds = %_ZN4llvh9StringRefC2EPKc.exit36
  %add.ptr19 = getelementptr inbounds i8, ptr %26, i64 16
  br label %cast.end20

cast.end20:                                       ; preds = %cast.notnull18, %_ZN4llvh9StringRefC2EPKc.exit36
  %cast.result21 = phi ptr [ %add.ptr19, %cast.notnull18 ], [ null, %_ZN4llvh9StringRefC2EPKc.exit36 ]
  store ptr %cast.result21, ptr %iterator17, align 8
  %nextMethod22 = getelementptr inbounds %"struct.hermes::irgen::ESTreeIRGen::IteratorRecordSlow", ptr %retval, i32 0, i32 1
  %28 = load ptr, ptr %nextMethod, align 8
  %29 = icmp eq ptr %28, null
  br i1 %29, label %cast.end25, label %cast.notnull23

cast.notnull23:                                   ; preds = %cast.end20
  %add.ptr24 = getelementptr inbounds i8, ptr %28, i64 16
  br label %cast.end25

cast.end25:                                       ; preds = %cast.notnull23, %cast.end20
  %cast.result26 = phi ptr [ %add.ptr24, %cast.notnull23 ], [ null, %cast.end20 ]
  store ptr %cast.result26, ptr %nextMethod22, align 8
  %30 = load { ptr, ptr }, ptr %retval, align 8
  ret { ptr, ptr } %30
}