; Function Attrs: mustprogress nounwind uwtable
define hidden { ptr, ptr } @_ZN6hermes5irgen11ESTreeIRGen19emitGetIteratorSlowEPNS_5ValueE(ptr noundef nonnull align 8 dereferenceable(200) %this, ptr noundef %obj) local_unnamed_addr #0 align 2 {
entry:
  %ref.tmp2.i = alloca [2 x ptr], align 8
  %Builder = getelementptr inbounds i8, ptr %this, i64 8
  %call.i = tail call noundef ptr @_ZN6hermes9IRBuilder31createTryLoadGlobalPropertyInstEN4llvh9StringRefE(ptr noundef nonnull align 8 dereferenceable(40) %Builder, ptr nonnull @.str.12, i64 6) #15
  %0 = icmp eq ptr %call.i, null
  %add.ptr.i = getelementptr inbounds i8, ptr %call.i, i64 16
  %spec.select.i = select i1 %0, ptr null, ptr %add.ptr.i
  %call4.i = tail call noundef ptr @_ZN6hermes9IRBuilder22createLoadPropertyInstEPNS_5ValueEN4llvh9StringRefE(ptr noundef nonnull align 8 dereferenceable(40) %Builder, ptr noundef %spec.select.i, ptr nonnull @.str.13, i64 8) #15
  %1 = icmp eq ptr %call4.i, null
  %add.ptr6.i = getelementptr inbounds i8, ptr %call4.i, i64 16
  %spec.select1.i = select i1 %1, ptr null, ptr %add.ptr6.i
  %call2 = tail call noundef ptr @_ZN6hermes9IRBuilder22createLoadPropertyInstEPNS_5ValueES2_(ptr noundef nonnull align 8 dereferenceable(40) %Builder, ptr noundef %obj, ptr noundef %spec.select1.i) #15
  %2 = icmp eq ptr %call2, null
  %add.ptr = getelementptr inbounds i8, ptr %call2, i64 16
  %spec.select = select i1 %2, ptr null, ptr %add.ptr
  %call4 = tail call noundef ptr @_ZN6hermes9IRBuilder14createCallInstEPNS_13LiteralStringEPNS_5ValueES4_N4llvh8ArrayRefIS4_EE(ptr noundef nonnull align 8 dereferenceable(40) %Builder, ptr noundef null, ptr noundef %spec.select, ptr noundef %obj, ptr null, i64 0) #15
  %3 = icmp eq ptr %call4, null
  %add.ptr6 = getelementptr inbounds i8, ptr %call4, i64 16
  %cast.result8 = select i1 %3, ptr null, ptr %add.ptr6
  call void @llvm.lifetime.start.p0(i64 16, ptr nonnull %ref.tmp2.i)
  store ptr %cast.result8, ptr %ref.tmp2.i, align 8
  %arrayinit.element.i = getelementptr inbounds i8, ptr %ref.tmp2.i, i64 8
  %call.i11 = tail call noundef ptr @_ZN6hermes9IRBuilder16getLiteralStringEN4llvh9StringRefE(ptr noundef nonnull align 8 dereferenceable(40) %Builder, ptr nonnull @.str.14, i64 25) #15
  store ptr %call.i11, ptr %arrayinit.element.i, align 8
  %call.i.i = call noundef ptr @_ZN6hermes9IRBuilder21createCallBuiltinInstENS_13BuiltinMethod4EnumEN4llvh8ArrayRefIPNS_5ValueEEE(ptr noundef nonnull align 8 dereferenceable(40) %Builder, i8 noundef zeroext 40, ptr nonnull %ref.tmp2.i, i64 2) #15
  call void @llvm.lifetime.end.p0(i64 16, ptr nonnull %ref.tmp2.i)
  %call16 = call noundef ptr @_ZN6hermes9IRBuilder22createLoadPropertyInstEPNS_5ValueEN4llvh9StringRefE(ptr noundef nonnull align 8 dereferenceable(40) %Builder, ptr noundef %cast.result8, ptr nonnull @.str.15, i64 4) #15
  %4 = icmp eq ptr %call16, null
  %add.ptr24 = getelementptr inbounds i8, ptr %call16, i64 16
  %cast.result26 = select i1 %4, ptr null, ptr %add.ptr24
  %.fca.0.insert = insertvalue { ptr, ptr } poison, ptr %cast.result8, 0
  %.fca.1.insert = insertvalue { ptr, ptr } %.fca.0.insert, ptr %cast.result26, 1
  ret { ptr, ptr } %.fca.1.insert
}